; Function Attrs: null_pointer_is_valid sspstrong uwtable
define internal fastcc void @cancel_broadcast_sm(ptr noundef %0, ptr noundef %1, ptr noundef %2) unnamed_addr #0 {
  %4 = alloca i32, align 4
  store i32 16, ptr %4, align 4
  %5 = load i32, ptr @hf_smpp_service_type, align 4
  %6 = tail call i32 @tvb_strsize(ptr noundef %1, i32 noundef 16)
  %7 = icmp sgt i32 %6, 1
  br i1 %7, label %8, label %10

8:                                                ; preds = %3
  %9 = tail call ptr @proto_tree_add_item(ptr noundef %0, i32 noundef %5, ptr noundef %1, i32 noundef 16, i32 noundef %6, i32 noundef 0)
  br label %smpp_handle_string_z.exit

10:                                               ; preds = %3
  %11 = tail call ptr @proto_tree_add_string(ptr noundef %0, i32 noundef %5, ptr noundef %1, i32 noundef 16, i32 noundef %6, ptr noundef nonnull @.str.967)
  br label %smpp_handle_string_z.exit

smpp_handle_string_z.exit:                        ; preds = %8, %10
  %12 = add i32 %6, 16
  %13 = load i32, ptr @hf_smpp_message_id, align 4
  %14 = tail call i32 @tvb_strsize(ptr noundef %1, i32 noundef %12)
  %15 = icmp ugt i32 %14, 1
  br i1 %15, label %16, label %smpp_handle_string.exit

16:                                               ; preds = %smpp_handle_string_z.exit
  %17 = tail call ptr @proto_tree_add_item(ptr noundef %0, i32 noundef %13, ptr noundef %1, i32 noundef %12, i32 noundef %14, i32 noundef 0)
  br label %smpp_handle_string.exit

smpp_handle_string.exit:                          ; preds = %smpp_handle_string_z.exit, %16
  %18 = add i32 %12, %14
  %19 = load i32, ptr @hf_smpp_source_addr_ton, align 4
  %20 = tail call ptr @proto_tree_add_item(ptr noundef %0, i32 noundef %19, ptr noundef %1, i32 noundef %18, i32 noundef 1, i32 noundef 0)
  %21 = add i32 %18, 1
  %22 = load i32, ptr @hf_smpp_source_addr_npi, align 4
  %23 = tail call ptr @proto_tree_add_item(ptr noundef %0, i32 noundef %22, ptr noundef %1, i32 noundef %21, i32 noundef 1, i32 noundef 0)
  %24 = add i32 %18, 2
  %25 = load i32, ptr @hf_smpp_source_addr, align 4
  %26 = tail call i32 @tvb_strsize(ptr noundef %1, i32 noundef %24)
  %27 = icmp ugt i32 %26, 1
  br i1 %27, label %28, label %smpp_handle_string.exit13

28:                                               ; preds = %smpp_handle_string.exit
  %29 = tail call ptr @proto_tree_add_item(ptr noundef %0, i32 noundef %25, ptr noundef %1, i32 noundef %24, i32 noundef %26, i32 noundef 0)
  br label %smpp_handle_string.exit13

smpp_handle_string.exit13:                        ; preds = %smpp_handle_string.exit, %28
  %30 = add i32 %24, %26
  store i32 %30, ptr %4, align 4
  call fastcc void @smpp_handle_tlv(ptr noundef %0, ptr noundef %1, ptr noundef %2, ptr noundef nonnull %4, ptr noundef null)
  ret void
}